Certificate:
    Data:
        Version: 3 (0x2)
        Serial Number: 1 (0x1)
    Signature Algorithm: sha512WithRSAEncryption
        Issuer: C=DE, CN=ca.etcd.ovhcloud.tools, O=ovhcloud
        Validity
            Not Before: Jul  5 11:42:36 2023 GMT
            Not After : Jul  2 11:42:36 2033 GMT
        Subject: O=ovhcloud, CN=k3s-ha-etcd.vcluster-k3s-ha
        Subject Public Key Info:
            Public Key Algorithm: rsaEncryption
                RSA Public-Key: (4096 bit)
                Modulus:
                    00:b0:9c:b0:58:36:25:a3:34:6a:2d:08:07:c6:95:
                    68:38:bf:74:6e:91:76:54:cf:69:1d:1f:e2:a5:da:
                    13:18:e1:dc:1c:48:b9:44:c3:3d:17:1d:0a:3e:f6:
                    a0:45:71:f4:5e:c6:43:c7:19:e3:87:47:5e:a5:1f:
                    80:82:03:07:4d:0f:de:92:bb:d3:20:54:14:75:fe:
                    49:4c:6b:86:c3:dd:1d:da:3a:ea:e1:cd:47:42:0e:
                    16:db:a2:0c:ff:42:94:b3:93:b0:8d:9b:ce:7b:28:
                    e2:f8:b2:d5:86:e9:26:4e:98:6c:51:8d:c1:e6:a1:
                    20:0d:65:d2:3e:e0:36:b7:35:9c:6e:17:6e:dc:da:
                    fa:02:01:df:2c:ab:37:e5:ad:81:cf:a9:2e:c4:d1:
                    9d:4e:d1:63:77:bc:a9:1b:9b:6c:b7:63:4d:7a:49:
                    42:d0:3a:cb:c7:6c:13:ef:9f:58:2b:9f:d3:38:fe:
                    78:c0:83:98:45:98:0a:c2:3a:80:6a:63:4b:7c:e3:
                    10:1d:c4:9a:d6:51:ae:4d:de:0b:49:f5:94:58:b9:
                    56:1b:24:b5:61:4a:a0:d1:c8:16:15:f2:ff:ae:9d:
                    76:5f:85:36:6e:81:e2:98:8f:96:94:48:ea:31:ca:
                    df:75:35:36:20:5f:6d:c2:ba:b9:89:07:47:5c:1e:
                    6a:57:2e:1d:03:79:81:18:41:84:c8:68:26:27:b4:
                    a2:14:6c:b5:64:ac:11:8f:12:4f:08:a2:13:43:c6:
                    a2:42:95:aa:4f:39:f6:72:a6:8d:6d:7b:82:53:10:
                    72:8a:da:28:be:96:69:4b:3e:ec:d3:c3:a5:5a:3c:
                    4f:51:61:fb:41:27:6f:d6:27:ea:db:2a:08:16:50:
                    b1:7b:06:d2:41:88:ff:e8:48:e5:a6:23:8b:3f:46:
                    7e:40:e2:a6:87:46:59:e3:f6:79:9f:a7:12:0f:7d:
                    39:e9:cf:99:ad:86:a3:2f:a8:54:67:a0:6c:13:f1:
                    27:ff:35:d8:2a:d1:ab:6e:7b:39:65:28:46:dc:5c:
                    71:79:6d:2f:c4:59:26:14:97:ad:d0:2e:54:c1:2f:
                    76:68:d4:7a:bf:be:1d:f7:c6:21:02:57:0e:1f:11:
                    81:1d:25:03:44:9d:2d:d1:77:7a:f6:23:c3:49:fc:
                    73:7d:19:30:7a:de:c6:77:29:73:99:14:0a:0f:2f:
                    2b:68:2b:33:92:36:a3:15:6f:ef:21:5c:f4:60:e0:
                    34:34:c4:9b:19:ad:39:61:dc:4c:4d:ad:13:84:38:
                    29:9e:1c:78:54:e1:5c:4e:7b:02:a0:89:32:dc:57:
                    33:54:81:00:50:1f:17:fa:e0:4b:eb:cd:62:4c:09:
                    3b:82:97
                Exponent: 65537 (0x10001)
        X509v3 extensions:
            X509v3 Basic Constraints: 
                CA:FALSE
            X509v3 Extended Key Usage: 
                TLS Web Client Authentication, TLS Web Server Authentication
            X509v3 Key Usage: 
                Digital Signature, Key Encipherment
            X509v3 Subject Alternative Name: 
                IP Address:127.0.0.1
    Signature Algorithm: sha512WithRSAEncryption
         9d:88:78:67:26:a9:c0:a3:5d:6d:21:3b:93:ea:c9:9c:55:e6:
         bc:39:8a:22:2e:e2:c5:5b:93:d6:37:55:8f:e1:65:47:8b:5c:
         31:45:ec:44:0f:b4:9a:76:53:65:a7:9e:f5:86:19:91:c8:ff:
         0b:cd:0e:b5:9e:f6:8d:05:69:ce:10:30:85:e3:23:e8:c0:4b:
         cb:35:fa:57:22:4f:3e:32:10:ae:c8:25:6e:35:e7:a0:74:31:
         00:7c:07:3c:41:14:58:4e:5d:bb:f3:26:a6:4b:52:67:57:f7:
         2c:7d:d4:09:1f:d8:df:55:2b:91:69:c0:14:7a:ba:fa:4f:30:
         6e:22:9c:4b:f2:2a:41:0f:c2:80:41:18:4d:9f:69:75:2f:39:
         f4:85:82:eb:bd:49:f6:42:d4:ce:8e:63:5e:95:c1:52:82:d1:
         02:bf:b3:ef:0b:c5:fa:3f:5f:14:a0:f8:19:26:b6:c7:f5:03:
         07:c3:37:51:3b:27:f7:5a:33:38:5e:25:cc:70:0d:21:cb:6d:
         2f:45:cf:7a:e9:2b:55:91:ba:87:10:71:07:61:95:6f:e7:3c:
         c9:4a:d7:68:ca:f3:15:de:fc:91:3f:06:21:9e:6b:7d:02:3c:
         09:e4:9f:94:d0:8a:95:d4:5e:56:0b:fd:63:45:cc:a6:94:fc:
         fa:d7:4a:27:cd:11:97:d1:a8:05:67:a5:f2:74:29:ab:6c:16:
         5f:29:97:eb:b9:ef:57:fe:8d:bf:a2:bd:7d:70:15:db:e0:53:
         8e:16:34:c1:35:ee:21:37:4c:cc:19:bc:9c:60:6d:b7:7e:22:
         ec:be:3e:45:94:5e:18:08:20:bb:a7:d9:46:9c:0b:6c:2f:e4:
         14:72:e8:0a:f1:54:37:e5:57:40:80:33:3c:be:cc:22:f2:f3:
         a4:11:bc:0b:b5:07:c7:be:81:69:79:a6:02:5e:c2:6d:a0:60:
         c5:f2:ef:ea:c1:f9:d5:00:fa:56:46:d7:a0:54:93:b8:8e:a0:
         ef:24:2a:1a:3b:88:76:bb:3a:33:12:e0:ad:8d:62:b6:7c:6e:
         64:3d:fd:5b:11:c3:0f:76:17:91:49:f3:67:1c:bc:50:d3:6f:
         a9:dc:20:94:0c:bc:40:35:25:a3:e7:75:83:55:fc:70:4f:9c:
         f1:b4:ee:2c:32:28:94:8b:81:34:08:b7:2c:01:ab:7c:33:66:
         46:68:82:13:45:94:62:d1:60:49:c4:4b:aa:2d:34:9f:73:2e:
         56:81:8e:52:04:77:e2:25:ca:80:11:64:01:85:2e:2b:2a:df:
         8b:2e:e2:6a:6c:cf:9a:e4:04:d3:bc:51:8a:cc:85:43:62:33:
         76:8a:73:d4:b6:9a:b1:9d
-----BEGIN CERTIFICATE-----
MIIFPzCCAyegAwIBAgIBATANBgkqhkiG9w0BAQ0FADBBMQswCQYDVQQGEwJERTEf
MB0GA1UEAwwWY2EuZXRjZC5vdmhjbG91ZC50b29sczERMA8GA1UECgwIb3ZoY2xv
dWQwHhcNMjMwNzA1MTE0MjM2WhcNMzMwNzAyMTE0MjM2WjA5MREwDwYDVQQKDAhv
dmhjbG91ZDEkMCIGA1UEAwwbazNzLWhhLWV0Y2QudmNsdXN0ZXItazNzLWhhMIIC
IjANBgkqhkiG9w0BAQEFAAOCAg8AMIICCgKCAgEAsJywWDYlozRqLQgHxpVoOL90
bpF2VM9pHR/ipdoTGOHcHEi5RMM9Fx0KPvagRXH0XsZDxxnjh0depR+AggMHTQ/e
krvTIFQUdf5JTGuGw90d2jrq4c1HQg4W26IM/0KUs5OwjZvOeyji+LLVhukmTphs
UY3B5qEgDWXSPuA2tzWcbhdu3Nr6AgHfLKs35a2Bz6kuxNGdTtFjd7ypG5tst2NN
eklC0DrLx2wT759YK5/TOP54wIOYRZgKwjqAamNLfOMQHcSa1lGuTd4LSfWUWLlW
GyS1YUqg0cgWFfL/rp12X4U2boHimI+WlEjqMcrfdTU2IF9twrq5iQdHXB5qVy4d
A3mBGEGEyGgmJ7SiFGy1ZKwRjxJPCKITQ8aiQpWqTzn2cqaNbXuCUxByitoovpZp
Sz7s08OlWjxPUWH7QSdv1ifq2yoIFlCxewbSQYj/6EjlpiOLP0Z+QOKmh0ZZ4/Z5
n6cSD3056c+ZrYajL6hUZ6BsE/En/zXYKtGrbns5ZShG3FxxeW0vxFkmFJet0C5U
wS92aNR6v74d98YhAlcOHxGBHSUDRJ0t0Xd69iPDSfxzfRkwet7GdylzmRQKDy8r
aCszkjajFW/vIVz0YOA0NMSbGa05YdxMTa0ThDgpnhx4VOFcTnsCoIky3FczVIEA
UB8X+uBL681iTAk7gpcCAwEAAaNKMEgwCQYDVR0TBAIwADAdBgNVHSUEFjAUBggr
BgEFBQcDAgYIKwYBBQUHAwEwCwYDVR0PBAQDAgWgMA8GA1UdEQQIMAaHBH8AAAEw
DQYJKoZIhvcNAQENBQADggIBAJ2IeGcmqcCjXW0hO5PqyZxV5rw5iiIu4sVbk9Y3
VY/hZUeLXDFF7EQPtJp2U2WnnvWGGZHI/wvNDrWe9o0Fac4QMIXjI+jAS8s1+lci
Tz4yEK7IJW4156B0MQB8BzxBFFhOXbvzJqZLUmdX9yx91Akf2N9VK5FpwBR6uvpP
MG4inEvyKkEPwoBBGE2faXUvOfSFguu9SfZC1M6OY16VwVKC0QK/s+8Lxfo/XxSg
+Bkmtsf1AwfDN1E7J/daMzheJcxwDSHLbS9Fz3rpK1WRuocQcQdhlW/nPMlK12jK
8xXe/JE/BiGea30CPAnkn5TQipXUXlYL/WNFzKaU/PrXSifNEZfRqAVnpfJ0Kats
Fl8pl+u571f+jb+ivX1wFdvgU44WNME17iE3TMwZvJxgbbd+Iuy+PkWUXhgIILun
2UacC2wv5BRy6ArxVDflV0CAMzy+zCLy86QRvAu1B8e+gWl5pgJewm2gYMXy7+rB
+dUA+lZG16BUk7iOoO8kKho7iHa7OjMS4K2NYrZ8bmQ9/VsRww92F5FJ82ccvFDT
b6ncIJQMvEA1JaPndYNV/HBPnPG07iwyKJSLgTQItywBq3wzZkZoghNFlGLRYEnE
S6otNJ9zLlaBjlIEd+IlyoARZAGFLisq34su4mpsz5rkBNO8UYrMhUNiM3aKc9S2
mrGd
-----END CERTIFICATE-----
