Certificate:
    Data:
        Version: 3 (0x2)
        Serial Number: 2 (0x2)
    Signature Algorithm: sha512WithRSAEncryption
        Issuer: C=DE, CN=ca.etcd.ovhcloud.tools, O=ovhcloud
        Validity
            Not Before: Jul  5 11:52:24 2023 GMT
            Not After : Jul  2 11:52:24 2033 GMT
        Subject: O=ovhcloud, CN=k3s-ha-etcd-0.vcluster-k3s-ha
        Subject Public Key Info:
            Public Key Algorithm: rsaEncryption
                RSA Public-Key: (4096 bit)
                Modulus:
                    00:cd:e5:bb:81:e1:7b:4b:59:5d:ad:0b:f4:55:86:
                    a7:2f:33:36:d0:24:55:4a:1f:dc:18:48:95:23:57:
                    ef:bd:47:0e:f0:6c:16:9d:ed:e6:27:5b:6d:e9:50:
                    c9:bf:06:b3:1d:2a:b4:41:57:02:a3:fc:97:24:6f:
                    91:8c:9b:b3:79:83:c3:ee:0a:3a:0d:33:84:f0:a6:
                    da:9f:0e:50:40:70:7a:3e:a8:ae:cf:7b:d9:5a:22:
                    8a:41:b1:07:7a:15:1c:1f:ba:7c:27:50:95:16:6b:
                    ee:99:d4:05:56:5c:0c:15:11:21:66:54:eb:dd:3e:
                    61:6e:f7:f2:de:46:f0:65:6b:74:96:e8:a9:98:cd:
                    89:8b:b8:86:68:b4:d5:56:e2:61:00:e9:72:22:a9:
                    a8:a5:e0:7d:77:90:81:5e:4c:24:ff:64:8f:90:e6:
                    3c:a2:8e:14:4f:a0:e6:45:29:e7:2f:16:55:71:f4:
                    4a:b8:dc:d7:b2:ee:7f:c4:56:42:e3:02:08:7b:2b:
                    b3:d6:ed:b4:30:c1:09:3e:7b:b8:c5:fa:8b:cf:63:
                    6f:8d:3e:87:e8:2a:af:af:2e:b8:1a:f9:78:05:4d:
                    8a:02:70:21:97:ee:df:fd:a5:36:6b:12:58:d7:39:
                    99:24:c2:86:18:49:37:64:ba:bc:85:83:66:c0:13:
                    29:b8:89:91:11:0a:c0:7b:75:64:6e:9e:b0:df:89:
                    43:6d:61:62:57:42:b0:24:2e:ea:13:4b:ed:f8:b5:
                    ae:6f:4c:5e:52:ea:67:46:3b:1f:e7:59:b0:30:db:
                    66:72:16:ae:ff:dc:7d:6a:b7:71:aa:2c:82:0a:97:
                    fb:a0:2e:6c:46:51:d0:4e:75:b7:b1:95:86:7e:11:
                    49:ea:82:2c:f3:6b:7a:0b:f6:e5:86:bc:13:be:7f:
                    8b:d5:49:41:b7:a2:18:61:b0:af:81:7b:a1:e1:b1:
                    b0:00:db:62:ec:55:90:60:2b:d8:44:0d:aa:3f:33:
                    ef:bc:a7:cf:4f:2c:3c:1d:99:16:be:b5:27:1d:f8:
                    79:a3:ee:4b:96:f8:eb:a3:d3:bf:58:57:f0:8c:af:
                    25:f2:a7:64:f3:bb:1e:88:42:df:e2:7a:db:46:f7:
                    d1:ae:ec:00:03:bd:01:ef:6f:cf:6d:ef:7c:04:53:
                    f0:61:78:7c:cf:1a:da:6d:cc:42:46:86:94:cc:01:
                    32:6f:46:22:38:3a:30:fe:3f:aa:c9:e5:63:c0:d4:
                    c4:f8:d0:27:8d:19:25:1e:5a:19:b6:aa:a0:3c:09:
                    b7:e3:07:c7:ca:c4:d4:e2:0d:cf:2f:4d:1d:56:52:
                    73:e3:68:c6:c8:a1:1e:6a:81:0b:f5:22:4d:e8:c1:
                    9c:98:47
                Exponent: 65537 (0x10001)
        X509v3 extensions:
            X509v3 Basic Constraints: 
                CA:FALSE
            X509v3 Extended Key Usage: 
                TLS Web Client Authentication, TLS Web Server Authentication
            X509v3 Key Usage: 
                Digital Signature, Key Encipherment
            X509v3 Subject Alternative Name: 
                DNS:k3s-ha-etcd-0.k3s-ha-etcd-headless.vcluster-k3s-ha, DNS:k3s-ha-etcd-1.k3s-ha-etcd-headless.vcluster-k3s-ha, DNS:k3s-ha-etcd-2.k3s-ha-etcd-headless.vcluster-k3s-ha
    Signature Algorithm: sha512WithRSAEncryption
         a7:e2:95:40:44:49:e9:34:9a:16:5c:b9:53:67:63:a3:e8:e5:
         1c:ce:54:f8:76:93:09:55:d1:b6:c2:87:ba:08:1d:d3:59:57:
         de:b3:71:4d:5a:98:75:1f:72:70:3b:d9:2c:d7:ee:00:76:cb:
         f3:a7:6d:55:fb:d9:14:d4:c4:b9:ca:c2:b6:72:56:dd:f2:03:
         c6:54:6b:37:b8:b3:d3:ec:2d:5e:5d:be:25:4f:40:b6:06:66:
         5a:b9:b7:b4:77:21:05:07:f2:3c:c7:2c:08:fe:c6:1a:fd:f4:
         0e:8f:22:f3:a0:b1:62:26:58:57:46:a5:59:d7:50:48:83:ac:
         68:98:41:ba:29:b0:5a:f7:5c:35:b5:2d:a8:fa:f6:28:25:0a:
         37:a7:d7:9a:13:e2:2a:82:fd:67:ac:e6:bd:bf:30:08:6e:2c:
         49:89:30:21:68:0d:c3:ff:f1:da:5d:07:8c:a3:78:8a:8a:fc:
         ca:0e:c1:af:59:77:99:d4:4a:bf:e2:34:7e:0d:8e:8d:e9:fd:
         b1:10:c4:9a:78:fa:62:2c:4a:f5:26:39:eb:aa:70:7b:34:d0:
         8f:01:62:95:7e:ce:5d:1f:a4:35:13:7e:85:63:97:ec:42:0b:
         6e:d2:49:d7:a3:04:76:0f:3e:35:24:a0:2f:45:96:bb:f4:52:
         b1:9b:8a:a3:47:1c:3d:4b:b3:78:91:31:68:a3:51:a4:da:e9:
         06:b8:80:8b:89:aa:7b:fa:99:c5:3c:40:aa:3b:b7:cc:aa:7b:
         95:ea:64:02:e1:72:c4:c8:8b:1d:05:65:82:07:22:98:f5:83:
         66:44:52:96:c9:01:9e:cc:4c:69:dc:f4:c9:f3:7c:93:b1:6e:
         dd:01:9c:76:c8:67:0e:f9:1d:78:66:4a:0f:3d:58:b7:cb:55:
         3b:72:29:ea:02:83:d1:3d:35:f3:17:fd:c8:f0:af:17:3d:c8:
         c3:66:27:d7:9c:52:e2:70:49:82:fb:ad:4e:ed:f2:01:f8:5f:
         2a:e7:5e:55:c3:7c:a1:c0:8e:d0:02:e7:83:3d:cf:be:94:2e:
         67:f8:7c:65:d1:bf:cb:d8:2e:4e:81:6f:14:13:08:3f:78:c5:
         8e:71:e4:65:1a:af:9d:d9:d0:43:7f:b0:19:fb:27:f4:4a:e4:
         c9:3e:96:62:9c:d0:df:1d:0b:1e:56:2f:15:01:85:c0:3e:84:
         ab:02:a3:27:7e:b7:e3:5e:50:20:3a:80:6d:57:5c:4f:b6:34:
         dc:0f:42:76:1f:55:bc:c3:6d:8c:cc:f3:c8:cc:bf:84:7a:96:
         56:a8:cc:76:f2:0a:61:7f:67:ca:8b:41:4d:b2:d4:4c:01:5f:
         8a:f2:a3:00:6e:8e:c2:84
-----BEGIN CERTIFICATE-----
MIIF3DCCA8SgAwIBAgIBAjANBgkqhkiG9w0BAQ0FADBBMQswCQYDVQQGEwJERTEf
MB0GA1UEAwwWY2EuZXRjZC5vdmhjbG91ZC50b29sczERMA8GA1UECgwIb3ZoY2xv
dWQwHhcNMjMwNzA1MTE1MjI0WhcNMzMwNzAyMTE1MjI0WjA7MREwDwYDVQQKDAhv
dmhjbG91ZDEmMCQGA1UEAwwdazNzLWhhLWV0Y2QtMC52Y2x1c3Rlci1rM3MtaGEw
ggIiMA0GCSqGSIb3DQEBAQUAA4ICDwAwggIKAoICAQDN5buB4XtLWV2tC/RVhqcv
MzbQJFVKH9wYSJUjV++9Rw7wbBad7eYnW23pUMm/BrMdKrRBVwKj/Jckb5GMm7N5
g8PuCjoNM4TwptqfDlBAcHo+qK7Pe9laIopBsQd6FRwfunwnUJUWa+6Z1AVWXAwV
ESFmVOvdPmFu9/LeRvBla3SW6KmYzYmLuIZotNVW4mEA6XIiqail4H13kIFeTCT/
ZI+Q5jyijhRPoOZFKecvFlVx9Eq43Ney7n/EVkLjAgh7K7PW7bQwwQk+e7jF+ovP
Y2+NPofoKq+vLrga+XgFTYoCcCGX7t/9pTZrEljXOZkkwoYYSTdkuryFg2bAEym4
iZERCsB7dWRunrDfiUNtYWJXQrAkLuoTS+34ta5vTF5S6mdGOx/nWbAw22ZyFq7/
3H1qt3GqLIIKl/ugLmxGUdBOdbexlYZ+EUnqgizza3oL9uWGvBO+f4vVSUG3ohhh
sK+Be6HhsbAA22LsVZBgK9hEDao/M++8p89PLDwdmRa+tScd+Hmj7kuW+Ouj079Y
V/CMryXyp2Tzux6IQt/iettG99Gu7AADvQHvb89t73wEU/BheHzPGtptzEJGhpTM
ATJvRiI4OjD+P6rJ5WPA1MT40CeNGSUeWhm2qqA8CbfjB8fKxNTiDc8vTR1WUnPj
aMbIoR5qgQv1Ik3owZyYRwIDAQABo4HkMIHhMAkGA1UdEwQCMAAwHQYDVR0lBBYw
FAYIKwYBBQUHAwIGCCsGAQUFBwMBMAsGA1UdDwQEAwIFoDCBpwYDVR0RBIGfMIGc
gjJrM3MtaGEtZXRjZC0wLmszcy1oYS1ldGNkLWhlYWRsZXNzLnZjbHVzdGVyLWsz
cy1oYYIyazNzLWhhLWV0Y2QtMS5rM3MtaGEtZXRjZC1oZWFkbGVzcy52Y2x1c3Rl
ci1rM3MtaGGCMmszcy1oYS1ldGNkLTIuazNzLWhhLWV0Y2QtaGVhZGxlc3MudmNs
dXN0ZXItazNzLWhhMA0GCSqGSIb3DQEBDQUAA4ICAQCn4pVAREnpNJoWXLlTZ2Oj
6OUczlT4dpMJVdG2woe6CB3TWVfes3FNWph1H3JwO9ks1+4Adsvzp21V+9kU1MS5
ysK2clbd8gPGVGs3uLPT7C1eXb4lT0C2BmZaube0dyEFB/I8xywI/sYa/fQOjyLz
oLFiJlhXRqVZ11BIg6xomEG6KbBa91w1tS2o+vYoJQo3p9eaE+Iqgv1nrOa9vzAI
bixJiTAhaA3D//HaXQeMo3iKivzKDsGvWXeZ1Eq/4jR+DY6N6f2xEMSaePpiLEr1
JjnrqnB7NNCPAWKVfs5dH6Q1E36FY5fsQgtu0knXowR2Dz41JKAvRZa79FKxm4qj
Rxw9S7N4kTFoo1Gk2ukGuICLiap7+pnFPECqO7fMqnuV6mQC4XLEyIsdBWWCByKY
9YNmRFKWyQGezExp3PTJ83yTsW7dAZx2yGcO+R14ZkoPPVi3y1U7cinqAoPRPTXz
F/3I8K8XPcjDZifXnFLicEmC+61O7fIB+F8q515Vw3yhwI7QAueDPc++lC5n+Hxl
0b/L2C5OgW8UEwg/eMWOceRlGq+d2dBDf7AZ+yf0SuTJPpZinNDfHQseVi8VAYXA
PoSrAqMnfrfjXlAgOoBtV1xPtjTcD0J2H1W8w22MzPPIzL+EepZWqMx28gphf2fK
i0FNstRMAV+K8qMAbo7ChA==
-----END CERTIFICATE-----
