Certificate:
    Data:
        Version: 3 (0x2)
        Serial Number: 4 (0x4)
    Signature Algorithm: sha512WithRSAEncryption
        Issuer: C=DE, CN=ca.etcd.ovhcloud.tools, O=ovhcloud
        Validity
            Not Before: Jul  5 12:05:22 2023 GMT
            Not After : Jul  2 12:05:22 2033 GMT
        Subject: O=ovhcloud, CN=etcd-peer
        Subject Public Key Info:
            Public Key Algorithm: rsaEncryption
                RSA Public-Key: (4096 bit)
                Modulus:
                    00:c7:61:01:f8:7c:b9:86:8c:8e:d8:3a:21:8f:12:
                    fd:37:29:ee:4f:45:2c:3a:1e:f3:07:66:ed:d6:92:
                    15:08:62:37:2c:fb:b3:5e:94:6c:63:65:74:a3:0b:
                    82:e9:65:8a:50:5f:ee:02:d5:1b:2c:f1:59:59:9b:
                    04:74:a7:6c:61:2f:54:a7:05:16:77:69:6e:1e:f4:
                    80:ab:58:3f:c4:b3:d2:14:29:90:9a:a7:c8:d8:94:
                    9d:45:bc:41:a0:1d:ab:1b:96:fe:d5:3b:23:7c:28:
                    f6:ca:09:d7:d1:77:6b:2f:08:78:4b:c9:ec:fe:8e:
                    cf:9b:39:cd:58:90:c9:46:28:00:7b:8c:23:68:7a:
                    a6:ad:7d:6d:9d:3c:66:5b:42:b6:80:b3:62:b5:e8:
                    da:43:1b:52:e6:8b:53:c9:86:ec:56:10:c9:f4:b7:
                    79:73:8c:df:68:a0:85:52:cf:7e:3c:3c:28:16:aa:
                    e4:48:ba:3f:06:bf:06:88:d8:9e:a8:c0:48:91:1c:
                    9c:b6:3a:cd:e5:32:7b:d4:40:80:02:29:32:5a:f2:
                    7b:96:b7:49:0e:a4:0c:37:aa:ae:1a:a8:7e:b4:68:
                    2d:f7:cd:55:7f:fc:80:b0:bf:ad:90:f2:00:0f:01:
                    31:85:52:ca:f9:c9:ce:29:05:0a:a7:18:eb:2b:3f:
                    8d:a5:29:a5:d6:4b:94:53:16:9f:c9:d6:02:36:98:
                    51:64:61:5f:b5:7e:2e:65:1c:d5:1f:d1:49:bf:7b:
                    de:c5:73:61:34:6f:78:ca:e2:65:46:1e:b1:ab:a0:
                    7d:ad:08:c9:e0:a2:2f:60:00:3c:d3:23:60:a1:3a:
                    d3:5c:96:a1:65:be:df:6d:cf:b6:89:96:5f:e7:11:
                    1b:13:be:2b:0d:51:71:9b:82:68:ad:f0:48:21:8d:
                    e9:74:5d:d3:62:3a:a2:26:77:3a:66:cd:b6:1b:ba:
                    67:0f:f3:21:09:81:12:d8:6b:1f:8f:c5:6c:e9:96:
                    eb:3e:e1:dd:12:f7:d9:6f:29:a1:05:5a:7b:ca:ce:
                    03:37:c2:ed:ab:2e:96:bb:a9:f6:27:54:54:90:ac:
                    16:26:40:f8:78:df:39:05:09:75:5a:c1:67:99:a8:
                    5e:a0:3a:92:6f:69:95:6d:4f:38:f8:2c:26:28:59:
                    ae:59:0b:a9:65:91:c0:a1:94:a8:05:93:03:64:32:
                    b1:f6:56:47:27:ee:ad:86:da:03:6d:6e:c6:1a:44:
                    90:16:d1:f2:9a:c8:56:55:8b:2b:90:61:41:4a:6f:
                    68:03:48:fd:ef:b1:a8:87:be:c0:15:fc:c7:f4:73:
                    d1:bd:2a:d8:21:d2:9c:6c:73:70:7a:1d:0d:62:c8:
                    65:d7:7f
                Exponent: 65537 (0x10001)
        X509v3 extensions:
            X509v3 Basic Constraints: 
                CA:FALSE
            X509v3 Extended Key Usage: 
                TLS Web Client Authentication
            X509v3 Key Usage: 
                Digital Signature, Key Encipherment
    Signature Algorithm: sha512WithRSAEncryption
         37:fa:ca:76:6d:9f:65:3c:7d:f1:50:d8:8d:c2:c6:0e:d1:43:
         4c:e9:09:34:e7:28:5e:7f:85:20:ca:82:76:73:eb:d8:10:59:
         70:38:8e:d1:f6:c3:6e:a0:d2:53:7d:e7:fb:06:da:a4:1d:be:
         ce:1d:ed:bd:b5:2e:87:80:b5:48:8e:80:3c:7d:01:28:b7:f2:
         fe:82:4d:d4:4f:df:38:76:1a:5f:eb:87:da:f5:cc:a8:4d:d3:
         ce:6a:01:f8:9e:0f:c7:1a:8e:af:47:68:0e:7c:9c:84:c4:4b:
         68:d3:96:a3:de:2a:4c:ae:79:9d:1d:99:6d:84:ea:9d:a4:07:
         b2:22:c7:60:e9:1f:44:b2:f5:5f:f0:8b:54:3a:92:69:23:1a:
         a6:9f:3b:5d:c9:d6:66:e0:0e:2a:44:d7:1d:f4:34:a9:66:83:
         72:33:33:79:34:43:02:1d:e1:fa:69:89:06:60:20:7d:69:51:
         1f:d2:4b:4e:9e:36:6c:96:e4:f0:01:6e:a0:7f:95:b2:44:fc:
         9a:2d:8f:0c:96:29:3b:60:72:80:ce:0e:b7:36:39:d5:55:00:
         49:bd:6e:9b:fc:b7:9d:b6:22:b2:1c:6f:09:39:ac:e6:9c:e4:
         76:93:af:f0:19:66:b7:21:d6:28:79:16:c3:4c:cc:a3:6d:bb:
         69:13:85:15:17:fd:e2:3d:0b:54:a5:c7:cb:99:76:74:7b:14:
         df:dc:c3:9e:96:b0:d3:a4:a6:80:d6:a0:70:72:d5:36:4d:3f:
         1f:cc:0c:26:ce:1c:22:b6:b6:4f:4d:74:69:73:4e:2b:bb:09:
         5e:15:a0:2b:d8:fe:56:59:8b:26:dd:40:05:ea:28:81:93:82:
         56:a4:bb:f3:f4:39:20:90:db:83:f3:e2:3c:9f:19:82:35:e1:
         51:6b:0c:aa:36:9c:87:60:7d:57:27:e8:97:b1:ad:c8:62:16:
         eb:c4:63:b5:84:e1:f4:e5:aa:37:5f:cc:42:ac:7c:bc:38:17:
         45:44:de:96:fd:7c:75:fc:ca:c9:06:68:71:ed:10:3c:c2:2b:
         e6:45:da:b9:16:63:2e:78:8f:33:47:cf:02:77:53:4f:72:16:
         52:d1:ab:00:de:52:64:31:86:89:07:8a:1f:36:c9:97:48:22:
         86:ae:53:92:c7:d9:49:d8:61:9f:b3:26:a6:1b:d2:4a:a9:df:
         3f:d4:0d:fd:5f:96:00:66:46:0e:70:83:06:63:58:0b:6e:50:
         f9:09:a3:c4:bc:0c:73:e9:72:92:5f:5c:66:0e:b1:22:af:94:
         7c:b6:31:96:19:3a:65:dd:d5:a9:59:35:73:78:66:e4:b7:a5:
         31:4a:70:d2:71:df:31:c0
-----BEGIN CERTIFICATE-----
MIIFEjCCAvqgAwIBAgIBBDANBgkqhkiG9w0BAQ0FADBBMQswCQYDVQQGEwJERTEf
MB0GA1UEAwwWY2EuZXRjZC5vdmhjbG91ZC50b29sczERMA8GA1UECgwIb3ZoY2xv
dWQwHhcNMjMwNzA1MTIwNTIyWhcNMzMwNzAyMTIwNTIyWjAnMREwDwYDVQQKDAhv
dmhjbG91ZDESMBAGA1UEAwwJZXRjZC1wZWVyMIICIjANBgkqhkiG9w0BAQEFAAOC
Ag8AMIICCgKCAgEAx2EB+Hy5hoyO2DohjxL9NynuT0UsOh7zB2bt1pIVCGI3LPuz
XpRsY2V0owuC6WWKUF/uAtUbLPFZWZsEdKdsYS9UpwUWd2luHvSAq1g/xLPSFCmQ
mqfI2JSdRbxBoB2rG5b+1TsjfCj2ygnX0XdrLwh4S8ns/o7PmznNWJDJRigAe4wj
aHqmrX1tnTxmW0K2gLNitejaQxtS5otTyYbsVhDJ9Ld5c4zfaKCFUs9+PDwoFqrk
SLo/Br8GiNieqMBIkRyctjrN5TJ71ECAAikyWvJ7lrdJDqQMN6quGqh+tGgt981V
f/yAsL+tkPIADwExhVLK+cnOKQUKpxjrKz+NpSml1kuUUxafydYCNphRZGFftX4u
ZRzVH9FJv3vexXNhNG94yuJlRh6xq6B9rQjJ4KIvYAA80yNgoTrTXJahZb7fbc+2
iZZf5xEbE74rDVFxm4JorfBIIY3pdF3TYjqiJnc6Zs22G7pnD/MhCYES2Gsfj8Vs
6ZbrPuHdEvfZbymhBVp7ys4DN8Ltqy6Wu6n2J1RUkKwWJkD4eN85BQl1WsFnmahe
oDqSb2mVbU84+CwmKFmuWQupZZHAoZSoBZMDZDKx9lZHJ+6thtoDbW7GGkSQFtHy
mshWVYsrkGFBSm9oA0j977Goh77AFfzH9HPRvSrYIdKcbHNweh0NYshl138CAwEA
AaMvMC0wCQYDVR0TBAIwADATBgNVHSUEDDAKBggrBgEFBQcDAjALBgNVHQ8EBAMC
BaAwDQYJKoZIhvcNAQENBQADggIBADf6ynZtn2U8ffFQ2I3Cxg7RQ0zpCTTnKF5/
hSDKgnZz69gQWXA4jtH2w26g0lN95/sG2qQdvs4d7b21LoeAtUiOgDx9ASi38v6C
TdRP3zh2Gl/rh9r1zKhN085qAfieD8cajq9HaA58nITES2jTlqPeKkyueZ0dmW2E
6p2kB7Iix2DpH0Sy9V/wi1Q6kmkjGqafO13J1mbgDipE1x30NKlmg3IzM3k0QwId
4fppiQZgIH1pUR/SS06eNmyW5PABbqB/lbJE/JotjwyWKTtgcoDODrc2OdVVAEm9
bpv8t522IrIcbwk5rOac5HaTr/AZZrch1ih5FsNMzKNtu2kThRUX/eI9C1Slx8uZ
dnR7FN/cw56WsNOkpoDWoHBy1TZNPx/MDCbOHCK2tk9NdGlzTiu7CV4VoCvY/lZZ
iybdQAXqKIGTglaku/P0OSCQ24Pz4jyfGYI14VFrDKo2nIdgfVcn6JexrchiFuvE
Y7WE4fTlqjdfzEKsfLw4F0VE3pb9fHX8yskGaHHtEDzCK+ZF2rkWYy54jzNHzwJ3
U09yFlLRqwDeUmQxhokHih82yZdIIoauU5LH2UnYYZ+zJqYb0kqp3z/UDf1flgBm
Rg5wgwZjWAtuUPkJo8S8DHPpcpJfXGYOsSKvlHy2MZYZOmXd1alZNXN4ZuS3pTFK
cNJx3zHA
-----END CERTIFICATE-----
